; Function Attrs: mustprogress sspstrong uwtable
define noundef ptr @_ZN3tbb6detail2r115allocate_memoryEm(i64 noundef %0) local_unnamed_addr #0 {
  %2 = load atomic i64, ptr @_ZN3tbb6detail2r1L16allocate_handlerE.0 acquire, align 8
  %.0.i.i = inttoptr i64 %2 to ptr
  %3 = tail call noundef ptr %.0.i.i(i64 noundef %0)
  %.not = icmp eq ptr %3, null
  br i1 %.not, label %4, label %5

4:                                                ; preds = %1
  tail call void @_ZN3tbb6detail2r115throw_exceptionENS0_2d012exception_idE(i32 noundef 1)
  br label %5

5:                                                ; preds = %4, %1
  ret ptr %3
}